target datalayout = "e-m:e-p270:32:32-p271:32:32-p272:64:64-i64:64-i128:128-f80:128-n8:16:32:64-S128"
target triple = "x86_64-pc-linux-gnu"

%struct.ge_p3 = type { [10 x i32], [10 x i32], [10 x i32], [10 x i32] }
%struct.ge_cached = type { [10 x i32], [10 x i32], [10 x i32], [10 x i32] }
%struct.ge_p1p1 = type { [10 x i32], [10 x i32], [10 x i32], [10 x i32] }

@d2 = internal constant [10 x i32] [i32 -21827239, i32 -5839606, i32 -30745221, i32 13898782, i32 229458, i32 15978800, i32 -12551817, i32 -6495438, i32 29715968, i32 9444199], align 16

; Function Attrs: nounwind uwtable
define internal void @fe_copy(ptr noundef %0, ptr noundef %1) #0 {
  %3 = alloca ptr, align 8
  %4 = alloca ptr, align 8
  store ptr %0, ptr %3, align 8, !tbaa !13
  store ptr %1, ptr %4, align 8, !tbaa !13
  %5 = load ptr, ptr %3, align 8, !tbaa !13
  %6 = load ptr, ptr %4, align 8, !tbaa !13
  call void @llvm.memmove.p0.p0.i64(ptr align 4 %5, ptr align 4 %6, i64 40, i1 false)
  ret void
}

; Function Attrs: nounwind uwtable
define internal void @fe_sub(ptr noundef %0, ptr noundef %1, ptr noundef %2) #0 {
  %4 = alloca ptr, align 8
  %5 = alloca ptr, align 8
  %6 = alloca ptr, align 8
  %7 = alloca i32, align 4
  store ptr %0, ptr %4, align 8, !tbaa !13
  store ptr %1, ptr %5, align 8, !tbaa !13
  store ptr %2, ptr %6, align 8, !tbaa !13
  call void @llvm.lifetime.start.p0(i64 4, ptr %7) #5
  store i32 0, ptr %7, align 4, !tbaa !15
  br label %8

8:                                                ; preds = %27, %3
  %9 = load i32, ptr %7, align 4, !tbaa !15
  %10 = icmp ult i32 %9, 10
  br i1 %10, label %11, label %30

11:                                               ; preds = %8
  %12 = load ptr, ptr %5, align 8, !tbaa !13
  %13 = load i32, ptr %7, align 4, !tbaa !15
  %14 = zext i32 %13 to i64
  %15 = getelementptr inbounds nuw i32, ptr %12, i64 %14
  %16 = load i32, ptr %15, align 4, !tbaa !15
  %17 = load ptr, ptr %6, align 8, !tbaa !13
  %18 = load i32, ptr %7, align 4, !tbaa !15
  %19 = zext i32 %18 to i64
  %20 = getelementptr inbounds nuw i32, ptr %17, i64 %19
  %21 = load i32, ptr %20, align 4, !tbaa !15
  %22 = sub nsw i32 %16, %21
  %23 = load ptr, ptr %4, align 8, !tbaa !13
  %24 = load i32, ptr %7, align 4, !tbaa !15
  %25 = zext i32 %24 to i64
  %26 = getelementptr inbounds nuw i32, ptr %23, i64 %25
  store i32 %22, ptr %26, align 4, !tbaa !15
  br label %27

27:                                               ; preds = %11
  %28 = load i32, ptr %7, align 4, !tbaa !15
  %29 = add i32 %28, 1
  store i32 %29, ptr %7, align 4, !tbaa !15
  br label %8, !llvm.loop !31

30:                                               ; preds = %8
  call void @llvm.lifetime.end.p0(i64 4, ptr %7) #5
  ret void
}

; Function Attrs: nounwind uwtable
define internal void @fe_add(ptr noundef %0, ptr noundef %1, ptr noundef %2) #0 {
  %4 = alloca ptr, align 8
  %5 = alloca ptr, align 8
  %6 = alloca ptr, align 8
  %7 = alloca i32, align 4
  store ptr %0, ptr %4, align 8, !tbaa !13
  store ptr %1, ptr %5, align 8, !tbaa !13
  store ptr %2, ptr %6, align 8, !tbaa !13
  call void @llvm.lifetime.start.p0(i64 4, ptr %7) #5
  store i32 0, ptr %7, align 4, !tbaa !15
  br label %8

8:                                                ; preds = %27, %3
  %9 = load i32, ptr %7, align 4, !tbaa !15
  %10 = icmp ult i32 %9, 10
  br i1 %10, label %11, label %30

11:                                               ; preds = %8
  %12 = load ptr, ptr %5, align 8, !tbaa !13
  %13 = load i32, ptr %7, align 4, !tbaa !15
  %14 = zext i32 %13 to i64
  %15 = getelementptr inbounds nuw i32, ptr %12, i64 %14
  %16 = load i32, ptr %15, align 4, !tbaa !15
  %17 = load ptr, ptr %6, align 8, !tbaa !13
  %18 = load i32, ptr %7, align 4, !tbaa !15
  %19 = zext i32 %18 to i64
  %20 = getelementptr inbounds nuw i32, ptr %17, i64 %19
  %21 = load i32, ptr %20, align 4, !tbaa !15
  %22 = add nsw i32 %16, %21
  %23 = load ptr, ptr %4, align 8, !tbaa !13
  %24 = load i32, ptr %7, align 4, !tbaa !15
  %25 = zext i32 %24 to i64
  %26 = getelementptr inbounds nuw i32, ptr %23, i64 %25
  store i32 %22, ptr %26, align 4, !tbaa !15
  br label %27

27:                                               ; preds = %11
  %28 = load i32, ptr %7, align 4, !tbaa !15
  %29 = add i32 %28, 1
  store i32 %29, ptr %7, align 4, !tbaa !15
  br label %8, !llvm.loop !32

30:                                               ; preds = %8
  call void @llvm.lifetime.end.p0(i64 4, ptr %7) #5
  ret void
}

; Function Attrs: nounwind uwtable
define hidden void @x25519_ge_p3_to_cached(ptr noundef %0, ptr noundef %1) #0 {
  %3 = alloca ptr, align 8
  %4 = alloca ptr, align 8
  store ptr %0, ptr %3, align 8, !tbaa !11
  store ptr %1, ptr %4, align 8, !tbaa !11
  %5 = load ptr, ptr %3, align 8, !tbaa !11
  %6 = getelementptr inbounds nuw %struct.ge_cached, ptr %5, i32 0, i32 0
  %7 = getelementptr inbounds [10 x i32], ptr %6, i64 0, i64 0
  %8 = load ptr, ptr %4, align 8, !tbaa !11
  %9 = getelementptr inbounds nuw %struct.ge_p3, ptr %8, i32 0, i32 1
  %10 = getelementptr inbounds [10 x i32], ptr %9, i64 0, i64 0
  %11 = load ptr, ptr %4, align 8, !tbaa !11
  %12 = getelementptr inbounds nuw %struct.ge_p3, ptr %11, i32 0, i32 0
  %13 = getelementptr inbounds [10 x i32], ptr %12, i64 0, i64 0
  call void @fe_add(ptr noundef %7, ptr noundef %10, ptr noundef %13)
  %14 = load ptr, ptr %3, align 8, !tbaa !11
  %15 = getelementptr inbounds nuw %struct.ge_cached, ptr %14, i32 0, i32 1
  %16 = getelementptr inbounds [10 x i32], ptr %15, i64 0, i64 0
  %17 = load ptr, ptr %4, align 8, !tbaa !11
  %18 = getelementptr inbounds nuw %struct.ge_p3, ptr %17, i32 0, i32 1
  %19 = getelementptr inbounds [10 x i32], ptr %18, i64 0, i64 0
  %20 = load ptr, ptr %4, align 8, !tbaa !11
  %21 = getelementptr inbounds nuw %struct.ge_p3, ptr %20, i32 0, i32 0
  %22 = getelementptr inbounds [10 x i32], ptr %21, i64 0, i64 0
  call void @fe_sub(ptr noundef %16, ptr noundef %19, ptr noundef %22)
  %23 = load ptr, ptr %3, align 8, !tbaa !11
  %24 = getelementptr inbounds nuw %struct.ge_cached, ptr %23, i32 0, i32 2
  %25 = getelementptr inbounds [10 x i32], ptr %24, i64 0, i64 0
  %26 = load ptr, ptr %4, align 8, !tbaa !11
  %27 = getelementptr inbounds nuw %struct.ge_p3, ptr %26, i32 0, i32 2
  %28 = getelementptr inbounds [10 x i32], ptr %27, i64 0, i64 0
  call void @fe_copy(ptr noundef %25, ptr noundef %28)
  %29 = load ptr, ptr %3, align 8, !tbaa !11
  %30 = getelementptr inbounds nuw %struct.ge_cached, ptr %29, i32 0, i32 3
  %31 = getelementptr inbounds [10 x i32], ptr %30, i64 0, i64 0
  %32 = load ptr, ptr %4, align 8, !tbaa !11
  %33 = getelementptr inbounds nuw %struct.ge_p3, ptr %32, i32 0, i32 3
  %34 = getelementptr inbounds [10 x i32], ptr %33, i64 0, i64 0
  call void @fe_mul(ptr noundef %31, ptr noundef %34, ptr noundef @d2)
  ret void
}

; Function Attrs: nounwind uwtable
define hidden void @x25519_ge_p1p1_to_p3(ptr noundef %0, ptr noundef %1) #0 {
  %3 = alloca ptr, align 8
  %4 = alloca ptr, align 8
  store ptr %0, ptr %3, align 8, !tbaa !11
  store ptr %1, ptr %4, align 8, !tbaa !11
  %5 = load ptr, ptr %3, align 8, !tbaa !11
  %6 = getelementptr inbounds nuw %struct.ge_p3, ptr %5, i32 0, i32 0
  %7 = getelementptr inbounds [10 x i32], ptr %6, i64 0, i64 0
  %8 = load ptr, ptr %4, align 8, !tbaa !11
  %9 = getelementptr inbounds nuw %struct.ge_p1p1, ptr %8, i32 0, i32 0
  %10 = getelementptr inbounds [10 x i32], ptr %9, i64 0, i64 0
  %11 = load ptr, ptr %4, align 8, !tbaa !11
  %12 = getelementptr inbounds nuw %struct.ge_p1p1, ptr %11, i32 0, i32 3
  %13 = getelementptr inbounds [10 x i32], ptr %12, i64 0, i64 0
  call void @fe_mul(ptr noundef %7, ptr noundef %10, ptr noundef %13)
  %14 = load ptr, ptr %3, align 8, !tbaa !11
  %15 = getelementptr inbounds nuw %struct.ge_p3, ptr %14, i32 0, i32 1
  %16 = getelementptr inbounds [10 x i32], ptr %15, i64 0, i64 0
  %17 = load ptr, ptr %4, align 8, !tbaa !11
  %18 = getelementptr inbounds nuw %struct.ge_p1p1, ptr %17, i32 0, i32 1
  %19 = getelementptr inbounds [10 x i32], ptr %18, i64 0, i64 0
  %20 = load ptr, ptr %4, align 8, !tbaa !11
  %21 = getelementptr inbounds nuw %struct.ge_p1p1, ptr %20, i32 0, i32 2
  %22 = getelementptr inbounds [10 x i32], ptr %21, i64 0, i64 0
  call void @fe_mul(ptr noundef %16, ptr noundef %19, ptr noundef %22)
  %23 = load ptr, ptr %3, align 8, !tbaa !11
  %24 = getelementptr inbounds nuw %struct.ge_p3, ptr %23, i32 0, i32 2
  %25 = getelementptr inbounds [10 x i32], ptr %24, i64 0, i64 0
  %26 = load ptr, ptr %4, align 8, !tbaa !11
  %27 = getelementptr inbounds nuw %struct.ge_p1p1, ptr %26, i32 0, i32 2
  %28 = getelementptr inbounds [10 x i32], ptr %27, i64 0, i64 0
  %29 = load ptr, ptr %4, align 8, !tbaa !11
  %30 = getelementptr inbounds nuw %struct.ge_p1p1, ptr %29, i32 0, i32 3
  %31 = getelementptr inbounds [10 x i32], ptr %30, i64 0, i64 0
  call void @fe_mul(ptr noundef %25, ptr noundef %28, ptr noundef %31)
  %32 = load ptr, ptr %3, align 8, !tbaa !11
  %33 = getelementptr inbounds nuw %struct.ge_p3, ptr %32, i32 0, i32 3
  %34 = getelementptr inbounds [10 x i32], ptr %33, i64 0, i64 0
  %35 = load ptr, ptr %4, align 8, !tbaa !11
  %36 = getelementptr inbounds nuw %struct.ge_p1p1, ptr %35, i32 0, i32 0
  %37 = getelementptr inbounds [10 x i32], ptr %36, i64 0, i64 0
  %38 = load ptr, ptr %4, align 8, !tbaa !11
  %39 = getelementptr inbounds nuw %struct.ge_p1p1, ptr %38, i32 0, i32 1
  %40 = getelementptr inbounds [10 x i32], ptr %39, i64 0, i64 0
  call void @fe_mul(ptr noundef %34, ptr noundef %37, ptr noundef %40)
  ret void
}

; Function Attrs: nounwind uwtable
define internal void @ge_p1p1_to_cached(ptr noundef %0, ptr noundef %1) #0 {
  %3 = alloca ptr, align 8
  %4 = alloca ptr, align 8
  %5 = alloca %struct.ge_p3, align 4
  store ptr %0, ptr %3, align 8, !tbaa !11
  store ptr %1, ptr %4, align 8, !tbaa !11
  call void @llvm.lifetime.start.p0(i64 160, ptr %5) #5
  %6 = load ptr, ptr %4, align 8, !tbaa !11
  call void @x25519_ge_p1p1_to_p3(ptr noundef %5, ptr noundef %6)
  %7 = load ptr, ptr %3, align 8, !tbaa !11
  call void @x25519_ge_p3_to_cached(ptr noundef %7, ptr noundef %5)
  call void @llvm.lifetime.end.p0(i64 160, ptr %5) #5
  ret void
}