; Function Attrs: nofree norecurse nosync nounwind memory(argmem: readwrite) uwtable
define internal fastcc void @ge_p1p1_to_cached(ptr noundef nonnull writeonly captures(none) %0, ptr noundef nonnull readonly captures(none) %1) unnamed_addr #0 {
  %3 = alloca %struct.ge_p3, align 4
  call void @llvm.lifetime.start.p0(i64 160, ptr nonnull %3) #8
  %4 = getelementptr inbounds nuw i8, ptr %1, i64 120
  call fastcc void @fe_mul(ptr noundef nonnull %3, ptr noundef nonnull readonly %1, ptr noundef nonnull readonly %4)
  %5 = getelementptr inbounds nuw i8, ptr %3, i64 40
  %6 = getelementptr inbounds nuw i8, ptr %1, i64 40
  %7 = getelementptr inbounds nuw i8, ptr %1, i64 80
  call fastcc void @fe_mul(ptr noundef nonnull %5, ptr noundef nonnull readonly %6, ptr noundef nonnull readonly %7)
  %8 = getelementptr inbounds nuw i8, ptr %3, i64 80
  call fastcc void @fe_mul(ptr noundef nonnull %8, ptr noundef nonnull readonly %7, ptr noundef nonnull readonly %4)
  %9 = getelementptr inbounds nuw i8, ptr %3, i64 120
  call fastcc void @fe_mul(ptr noundef nonnull %9, ptr noundef nonnull readonly %1, ptr noundef nonnull readonly %6)
  br label %10

10:                                               ; preds = %10, %2
  %indvars.iv.i.i = phi i64 [ 0, %2 ], [ %indvars.iv.next.i.i, %10 ]
  %11 = getelementptr inbounds nuw i32, ptr %5, i64 %indvars.iv.i.i
  %12 = load i32, ptr %11, align 4, !tbaa !18
  %13 = getelementptr inbounds nuw i32, ptr %3, i64 %indvars.iv.i.i
  %14 = load i32, ptr %13, align 4, !tbaa !18
  %15 = add nsw i32 %14, %12
  %16 = getelementptr inbounds nuw i32, ptr %0, i64 %indvars.iv.i.i
  store i32 %15, ptr %16, align 4, !tbaa !18
  %indvars.iv.next.i.i = add nuw nsw i64 %indvars.iv.i.i, 1
  %exitcond.not.i.i = icmp eq i64 %indvars.iv.next.i.i, 10
  br i1 %exitcond.not.i.i, label %fe_add.exit.i, label %10, !llvm.loop !21

fe_add.exit.i:                                    ; preds = %10
  %17 = getelementptr inbounds nuw i8, ptr %0, i64 40
  br label %18

18:                                               ; preds = %18, %fe_add.exit.i
  %indvars.iv.i10.i = phi i64 [ 0, %fe_add.exit.i ], [ %indvars.iv.next.i11.i, %18 ]
  %19 = getelementptr inbounds nuw i32, ptr %5, i64 %indvars.iv.i10.i
  %20 = load i32, ptr %19, align 4, !tbaa !18
  %21 = getelementptr inbounds nuw i32, ptr %3, i64 %indvars.iv.i10.i
  %22 = load i32, ptr %21, align 4, !tbaa !18
  %23 = sub nsw i32 %20, %22
  %24 = getelementptr inbounds nuw i32, ptr %17, i64 %indvars.iv.i10.i
  store i32 %23, ptr %24, align 4, !tbaa !18
  %indvars.iv.next.i11.i = add nuw nsw i64 %indvars.iv.i10.i, 1
  %exitcond.not.i12.i = icmp eq i64 %indvars.iv.next.i11.i, 10
  br i1 %exitcond.not.i12.i, label %x25519_ge_p3_to_cached.exit, label %18, !llvm.loop !20

x25519_ge_p3_to_cached.exit:                      ; preds = %18
  %25 = getelementptr inbounds nuw i8, ptr %0, i64 80
  call void @llvm.memcpy.p0.p0.i64(ptr noundef nonnull align 4 dereferenceable(40) %25, ptr noundef nonnull readonly align 4 dereferenceable(40) %8, i64 40, i1 false)
  %26 = getelementptr inbounds nuw i8, ptr %0, i64 120
  call fastcc void @fe_mul(ptr noundef nonnull %26, ptr noundef nonnull readonly %9, ptr noundef nonnull @d2)
  call void @llvm.lifetime.end.p0(i64 160, ptr nonnull %3) #8
  ret void
}